target datalayout = "e-m:e-p270:32:32-p271:32:32-p272:64:64-i64:64-i128:128-f80:128-n8:16:32:64-S128"
target triple = "x86_64-unknown-linux-gnu"

%struct.HashMap = type { ptr, i32, i32 }
%struct.Scope = type { ptr, %struct.HashMap, %struct.HashMap }
%struct.Obj = type { ptr, ptr, ptr, ptr, i8, i32, i32, i8, i8, i8, i8, i8, ptr, ptr, i8, ptr, ptr, ptr, ptr, ptr, i32, i8, i8, %struct.StringArray }
%struct.StringArray = type { ptr, i32, i32 }
%struct.VarScope = type { ptr, ptr, ptr, i32 }

@scope = internal global ptr @.compoundliteral, align 8

; Function Attrs: nounwind uwtable
define internal ptr @find_func(ptr noundef %name) #0 {
entry:
  %retval = alloca ptr, align 8
  %name.addr = alloca ptr, align 8
  %sc = alloca ptr, align 8
  %sc2 = alloca ptr, align 8
  store ptr %name, ptr %name.addr, align 8
  %0 = load ptr, ptr @scope, align 8
  store ptr %0, ptr %sc, align 8
  br label %while.cond

while.cond:                                       ; preds = %while.body, %entry
  %1 = load ptr, ptr %sc, align 8
  %next = getelementptr inbounds %struct.Scope, ptr %1, i32 0, i32 0
  %2 = load ptr, ptr %next, align 8
  %tobool = icmp ne ptr %2, null
  br i1 %tobool, label %while.body, label %while.end

while.body:                                       ; preds = %while.cond
  %3 = load ptr, ptr %sc, align 8
  %next1 = getelementptr inbounds %struct.Scope, ptr %3, i32 0, i32 0
  %4 = load ptr, ptr %next1, align 8
  store ptr %4, ptr %sc, align 8
  br label %while.cond, !llvm.loop !61

while.end:                                        ; preds = %while.cond
  %5 = load ptr, ptr %sc, align 8
  %vars = getelementptr inbounds %struct.Scope, ptr %5, i32 0, i32 1
  %6 = load ptr, ptr %name.addr, align 8
  %call = call ptr @hashmap_get(ptr noundef %vars, ptr noundef %6)
  store ptr %call, ptr %sc2, align 8
  %7 = load ptr, ptr %sc2, align 8
  %tobool2 = icmp ne ptr %7, null
  br i1 %tobool2, label %land.lhs.true, label %if.end

land.lhs.true:                                    ; preds = %while.end
  %8 = load ptr, ptr %sc2, align 8
  %var = getelementptr inbounds %struct.VarScope, ptr %8, i32 0, i32 0
  %9 = load ptr, ptr %var, align 8
  %tobool3 = icmp ne ptr %9, null
  br i1 %tobool3, label %land.lhs.true4, label %if.end

land.lhs.true4:                                   ; preds = %land.lhs.true
  %10 = load ptr, ptr %sc2, align 8
  %var5 = getelementptr inbounds %struct.VarScope, ptr %10, i32 0, i32 0
  %11 = load ptr, ptr %var5, align 8
  %is_function = getelementptr inbounds %struct.Obj, ptr %11, i32 0, i32 7
  %12 = load i8, ptr %is_function, align 4
  %tobool6 = trunc i8 %12 to i1
  br i1 %tobool6, label %if.then, label %if.end

if.then:                                          ; preds = %land.lhs.true4
  %13 = load ptr, ptr %sc2, align 8
  %var7 = getelementptr inbounds %struct.VarScope, ptr %13, i32 0, i32 0
  %14 = load ptr, ptr %var7, align 8
  store ptr %14, ptr %retval, align 8
  br label %return

if.end:                                           ; preds = %land.lhs.true4, %land.lhs.true, %while.end
  store ptr null, ptr %retval, align 8
  br label %return

return:                                           ; preds = %if.end, %if.then
  %15 = load ptr, ptr %retval, align 8
  ret ptr %15
}

; Function Attrs: nounwind uwtable
define internal void @mark_live(ptr noundef %var) #0 {
entry:
  %var.addr = alloca ptr, align 8
  %i = alloca i32, align 4
  %fn = alloca ptr, align 8
  store ptr %var, ptr %var.addr, align 8
  %0 = load ptr, ptr %var.addr, align 8
  %is_function = getelementptr inbounds %struct.Obj, ptr %0, i32 0, i32 7
  %1 = load i8, ptr %is_function, align 4
  %tobool = trunc i8 %1 to i1
  br i1 %tobool, label %lor.lhs.false, label %if.then

lor.lhs.false:                                    ; preds = %entry
  %2 = load ptr, ptr %var.addr, align 8
  %is_live = getelementptr inbounds %struct.Obj, ptr %2, i32 0, i32 21
  %3 = load i8, ptr %is_live, align 4
  %tobool1 = trunc i8 %3 to i1
  br i1 %tobool1, label %if.then, label %if.end

if.then:                                          ; preds = %lor.lhs.false, %entry
  br label %for.end

if.end:                                           ; preds = %lor.lhs.false
  %4 = load ptr, ptr %var.addr, align 8
  %is_live2 = getelementptr inbounds %struct.Obj, ptr %4, i32 0, i32 21
  store i8 1, ptr %is_live2, align 4
  store i32 0, ptr %i, align 4
  br label %for.cond

for.cond:                                         ; preds = %for.inc, %if.end
  %5 = load i32, ptr %i, align 4
  %6 = load ptr, ptr %var.addr, align 8
  %refs = getelementptr inbounds %struct.Obj, ptr %6, i32 0, i32 23
  %len = getelementptr inbounds %struct.StringArray, ptr %refs, i32 0, i32 2
  %7 = load i32, ptr %len, align 4
  %cmp = icmp slt i32 %5, %7
  br i1 %cmp, label %for.body, label %for.end

for.body:                                         ; preds = %for.cond
  %8 = load ptr, ptr %var.addr, align 8
  %refs3 = getelementptr inbounds %struct.Obj, ptr %8, i32 0, i32 23
  %data = getelementptr inbounds %struct.StringArray, ptr %refs3, i32 0, i32 0
  %9 = load ptr, ptr %data, align 8
  %10 = load i32, ptr %i, align 4
  %idxprom = sext i32 %10 to i64
  %arrayidx = getelementptr inbounds ptr, ptr %9, i64 %idxprom
  %11 = load ptr, ptr %arrayidx, align 8
  %call = call ptr @find_func(ptr noundef %11)
  store ptr %call, ptr %fn, align 8
  %12 = load ptr, ptr %fn, align 8
  %tobool4 = icmp ne ptr %12, null
  br i1 %tobool4, label %if.then5, label %if.end6

if.then5:                                         ; preds = %for.body
  %13 = load ptr, ptr %fn, align 8
  call void @mark_live(ptr noundef %13)
  br label %if.end6

if.end6:                                          ; preds = %if.then5, %for.body
  br label %for.inc

for.inc:                                          ; preds = %if.end6
  %14 = load i32, ptr %i, align 4
  %inc = add nsw i32 %14, 1
  store i32 %inc, ptr %i, align 4
  br label %for.cond, !llvm.loop !13

for.end:                                          ; preds = %for.cond, %if.then
  ret void
}