; Function Attrs: nounwind uwtable
define internal fastcc void @mark_live(ptr nocapture noundef %var) unnamed_addr #0 {
entry:
  %is_function = getelementptr inbounds %struct.Obj, ptr %var, i64 0, i32 7
  %0 = load i8, ptr %is_function, align 4
  %1 = and i8 %0, 1
  %tobool.not = icmp eq i8 %1, 0
  br i1 %tobool.not, label %for.end, label %lor.lhs.false

lor.lhs.false:                                    ; preds = %entry
  %is_live = getelementptr inbounds %struct.Obj, ptr %var, i64 0, i32 21
  %2 = load i8, ptr %is_live, align 4
  %3 = and i8 %2, 1
  %tobool1.not = icmp eq i8 %3, 0
  br i1 %tobool1.not, label %if.end, label %for.end

if.end:                                           ; preds = %lor.lhs.false
  store i8 1, ptr %is_live, align 4
  %len = getelementptr inbounds %struct.Obj, ptr %var, i64 0, i32 23, i32 2
  %4 = load i32, ptr %len, align 4
  %cmp10 = icmp sgt i32 %4, 0
  br i1 %cmp10, label %for.body.lr.ph, label %for.end

for.body.lr.ph:                                   ; preds = %if.end
  %refs = getelementptr inbounds %struct.Obj, ptr %var, i64 0, i32 23
  br label %for.body

for.body:                                         ; preds = %for.body.lr.ph, %for.inc
  %indvars.iv = phi i64 [ 0, %for.body.lr.ph ], [ %indvars.iv.next, %for.inc ]
  %5 = load ptr, ptr %refs, align 8
  %arrayidx = getelementptr inbounds ptr, ptr %5, i64 %indvars.iv
  %6 = load ptr, ptr %arrayidx, align 8
  %7 = load ptr, ptr @scope, align 8
  br label %while.cond.i

while.cond.i:                                     ; preds = %while.cond.i, %for.body
  %sc.0.i = phi ptr [ %7, %for.body ], [ %8, %while.cond.i ]
  %8 = load ptr, ptr %sc.0.i, align 8
  %tobool.not.i = icmp eq ptr %8, null
  br i1 %tobool.not.i, label %while.end.i, label %while.cond.i, !llvm.loop !17

while.end.i:                                      ; preds = %while.cond.i
  %vars.i = getelementptr inbounds %struct.Scope, ptr %sc.0.i, i64 0, i32 1
  %call.i = tail call ptr @hashmap_get(ptr noundef nonnull %vars.i, ptr noundef %6) #13
  %tobool2.not.i = icmp eq ptr %call.i, null
  br i1 %tobool2.not.i, label %for.inc, label %land.lhs.true.i

land.lhs.true.i:                                  ; preds = %while.end.i
  %9 = load ptr, ptr %call.i, align 8
  %tobool3.not.i = icmp eq ptr %9, null
  br i1 %tobool3.not.i, label %for.inc, label %land.lhs.true4.i

land.lhs.true4.i:                                 ; preds = %land.lhs.true.i
  %is_function.i = getelementptr inbounds %struct.Obj, ptr %9, i64 0, i32 7
  %10 = load i8, ptr %is_function.i, align 4
  %11 = and i8 %10, 1
  %tobool6.not.i = icmp eq i8 %11, 0
  br i1 %tobool6.not.i, label %for.inc, label %if.then5

if.then5:                                         ; preds = %land.lhs.true4.i
  tail call fastcc void @mark_live(ptr noundef nonnull %9)
  br label %for.inc

for.inc:                                          ; preds = %land.lhs.true4.i, %land.lhs.true.i, %while.end.i, %if.then5
  %indvars.iv.next = add nuw nsw i64 %indvars.iv, 1
  %12 = load i32, ptr %len, align 4
  %13 = sext i32 %12 to i64
  %cmp = icmp slt i64 %indvars.iv.next, %13
  br i1 %cmp, label %for.body, label %for.end, !llvm.loop !21

for.end:                                          ; preds = %for.inc, %if.end, %entry, %lor.lhs.false
  ret void
}